target datalayout = "e-m:e-p270:32:32-p271:32:32-p272:64:64-i64:64-i128:128-f80:128-n8:16:32:64-S128"
target triple = "x86_64-pc-linux-gnu"

%"class.llvm::StringRef" = type { ptr, i64 }
%"class.llvm::SmallVectorBase" = type { ptr, i32, i32 }
%"class.llvm::SmallPtrSetImplBase.base" = type <{ ptr, ptr, i32, i32, i32 }>
%"class.llvm::Register" = type { i32 }
%"class.llvm::MCRegAliasIterator" = type { ptr, ptr }
%"class.llvm::MCRegister" = type { i32 }
%"class.llvm::SmallVector.15" = type { %"class.llvm::SmallVectorImpl.16" }
%"class.llvm::SmallVectorImpl.16" = type { %"class.llvm::SmallVectorTemplateBase.17" }
%"class.llvm::SmallVectorTemplateBase.17" = type { %"class.llvm::SmallVectorTemplateCommon.18" }
%"class.llvm::SmallVectorTemplateCommon.18" = type { %"class.llvm::SmallVectorBase" }
%"struct.std::_Rb_tree_header" = type { %"struct.std::_Rb_tree_node_base", i64 }
%"struct.std::_Rb_tree_node_base" = type { i32, ptr, ptr, ptr }
%"class.llvm::DenseMap.148" = type <{ ptr, i32, i32, i32, [4 x i8] }>
%"class.llvm::ArrayRef.955" = type { ptr, i64 }
%"class.llvm::SmallVectorImpl.181" = type { %"class.llvm::SmallVectorTemplateBase.182" }
%"class.llvm::SmallVectorTemplateBase.182" = type { %"class.llvm::SmallVectorTemplateCommon.183" }
%"class.llvm::SmallVectorTemplateCommon.183" = type { %"class.llvm::SmallVectorBase" }
%"class.llvm::SmallVectorImpl.214" = type { %"class.llvm::SmallVectorTemplateBase.215" }
%"class.llvm::SmallVectorTemplateBase.215" = type { %"class.llvm::SmallVectorTemplateCommon.216" }
%"class.llvm::SmallVectorTemplateCommon.216" = type { %"class.llvm::SmallVectorBase" }
%"class.LiveDebugValues::InstrRefBasedLDV" = type { %"class.llvm::SharedLiveDebugValues::LDVImpl", ptr, ptr, ptr, ptr, ptr, ptr, %"class.llvm::BitVector", %"class.llvm::LexicalScopes", ptr, ptr, ptr, i32, i32, ptr, ptr, %"class.llvm::SmallPtrSet.253", %"class.llvm::SmallVector.256", %"class.llvm::DenseMap.95", %"class.llvm::DenseMap.148", %"class.std::map.261", %"class.llvm::SmallVector.267", %"class.llvm::DenseMap.272", %"class.llvm::DenseMap.275", %"class.llvm::DenseMap.278", %"class.LiveDebugValues::DbgOpIDMap", %"class.LiveDebugValues::DebugVariableMap", i8, %"class.llvm::StringRef" }
%"class.llvm::SharedLiveDebugValues::LDVImpl" = type { ptr }
%"class.llvm::BitVector" = type <{ %"class.llvm::SmallVector.220", i32, [4 x i8] }>
%"class.llvm::SmallVector.220" = type { %"class.llvm::SmallVectorImpl.214", %"struct.llvm::SmallVectorStorage.221" }
%"struct.llvm::SmallVectorStorage.221" = type { [48 x i8] }
%"class.llvm::LexicalScopes" = type { ptr, %"class.std::unordered_map", %"class.std::unordered_map.227", %"class.std::unordered_map", %"class.llvm::SmallVector.245", ptr, %"class.llvm::DenseMap.250" }
%"class.std::unordered_map.227" = type { %"class.std::_Hashtable.228" }
%"class.std::_Hashtable.228" = type { ptr, i64, %"struct.std::__detail::_Hash_node_base", i64, %"struct.std::__detail::_Prime_rehash_policy", ptr }
%"struct.std::__detail::_Hash_node_base" = type { ptr }
%"struct.std::__detail::_Prime_rehash_policy" = type { float, i64 }
%"class.std::unordered_map" = type { %"class.std::_Hashtable" }
%"class.std::_Hashtable" = type { ptr, i64, %"struct.std::__detail::_Hash_node_base", i64, %"struct.std::__detail::_Prime_rehash_policy", ptr }
%"class.llvm::SmallVector.245" = type { %"class.llvm::SmallVectorImpl.246", %"struct.llvm::SmallVectorStorage.249" }
%"class.llvm::SmallVectorImpl.246" = type { %"class.llvm::SmallVectorTemplateBase.247" }
%"class.llvm::SmallVectorTemplateBase.247" = type { %"class.llvm::SmallVectorTemplateCommon.248" }
%"class.llvm::SmallVectorTemplateCommon.248" = type { %"class.llvm::SmallVectorBase" }
%"struct.llvm::SmallVectorStorage.249" = type { [32 x i8] }
%"class.llvm::DenseMap.250" = type <{ ptr, i32, i32, i32, [4 x i8] }>
%"class.llvm::SmallPtrSet.253" = type { %"class.llvm::SmallPtrSetImpl.base.255", [16 x ptr] }
%"class.llvm::SmallPtrSetImpl.base.255" = type { %"class.llvm::SmallPtrSetImplBase.base" }
%"class.llvm::SmallVector.256" = type { %"class.llvm::SmallVectorImpl.257", %"struct.llvm::SmallVectorStorage.260" }
%"class.llvm::SmallVectorImpl.257" = type { %"class.llvm::SmallVectorTemplateBase.258" }
%"class.llvm::SmallVectorTemplateBase.258" = type { %"class.llvm::SmallVectorTemplateCommon.259" }
%"class.llvm::SmallVectorTemplateCommon.259" = type { %"class.llvm::SmallVectorBase" }
%"struct.llvm::SmallVectorStorage.260" = type { [48 x i8] }
%"class.llvm::DenseMap.95" = type <{ ptr, i32, i32, i32, [4 x i8] }>
%"class.std::map.261" = type { %"class.std::_Rb_tree.262" }
%"class.std::_Rb_tree.262" = type { %"struct.std::_Rb_tree<unsigned long, std::pair<const unsigned long, std::pair<const llvm::MachineInstr *, unsigned int>>, std::_Select1st<std::pair<const unsigned long, std::pair<const llvm::MachineInstr *, unsigned int>>>, std::less<unsigned long>>::_Rb_tree_impl" }
%"struct.std::_Rb_tree<unsigned long, std::pair<const unsigned long, std::pair<const llvm::MachineInstr *, unsigned int>>, std::_Select1st<std::pair<const unsigned long, std::pair<const llvm::MachineInstr *, unsigned int>>>, std::less<unsigned long>>::_Rb_tree_impl" = type { [8 x i8], %"struct.std::_Rb_tree_header" }
%"class.llvm::SmallVector.267" = type { %"class.llvm::SmallVectorImpl.268", %"struct.llvm::SmallVectorStorage.271" }
%"class.llvm::SmallVectorImpl.268" = type { %"class.llvm::SmallVectorTemplateBase.269" }
%"class.llvm::SmallVectorTemplateBase.269" = type { %"class.llvm::SmallVectorTemplateCommon.270" }
%"class.llvm::SmallVectorTemplateCommon.270" = type { %"class.llvm::SmallVectorBase" }
%"struct.llvm::SmallVectorStorage.271" = type { [1280 x i8] }
%"class.llvm::DenseMap.272" = type <{ ptr, i32, i32, i32, [4 x i8] }>
%"class.llvm::DenseMap.275" = type <{ ptr, i32, i32, i32, [4 x i8] }>
%"class.llvm::DenseMap.278" = type <{ ptr, i32, i32, i32, [4 x i8] }>
%"class.LiveDebugValues::DbgOpIDMap" = type { %"class.llvm::SmallVector.15", %"class.llvm::SmallVector.281", %"class.llvm::DenseMap.283", %"class.llvm::DenseMap.286" }
%"class.llvm::SmallVector.281" = type { %"class.llvm::SmallVectorImpl.181" }
%"class.llvm::DenseMap.283" = type <{ ptr, i32, i32, i32, [4 x i8] }>
%"class.llvm::DenseMap.286" = type <{ ptr, i32, i32, i32, [4 x i8] }>
%"class.LiveDebugValues::DebugVariableMap" = type { %"class.llvm::DenseMap.289", %"class.llvm::SmallVector.292" }
%"class.llvm::DenseMap.289" = type <{ ptr, i32, i32, i32, [4 x i8] }>
%"class.llvm::SmallVector.292" = type { %"class.llvm::SmallVectorImpl.293", %"struct.llvm::SmallVectorStorage.296" }
%"class.llvm::SmallVectorImpl.293" = type { %"class.llvm::SmallVectorTemplateBase.294" }
%"class.llvm::SmallVectorTemplateBase.294" = type { %"class.llvm::SmallVectorTemplateCommon.295" }
%"class.llvm::SmallVectorTemplateCommon.295" = type { %"class.llvm::SmallVectorBase" }
%"struct.llvm::SmallVectorStorage.296" = type { [48 x i8] }

; Function Attrs: mustprogress nounwind uwtable
define linkonce_odr hidden noundef ptr @_ZNK4llvm25SmallVectorTemplateCommonImvE5beginEv(ptr noundef nonnull align 8 dereferenceable(16) %0) #1 comdat align 2 {
  %2 = alloca ptr, align 8
  store ptr %0, ptr %2, align 8
  %3 = load ptr, ptr %2, align 8
  %4 = getelementptr inbounds nuw %"class.llvm::SmallVectorBase", ptr %3, i32 0, i32 0
  %5 = load ptr, ptr %4, align 8
  ret ptr %5
}

; Function Attrs: mustprogress nounwind uwtable
define linkonce_odr hidden noundef nonnull align 8 dereferenceable(8) ptr @_ZNK4llvm25SmallVectorTemplateCommonImvEixEm(ptr noundef nonnull align 8 dereferenceable(16) %0, i64 noundef %1) #1 comdat align 2 {
  %3 = alloca ptr, align 8
  %4 = alloca i64, align 8
  store ptr %0, ptr %3, align 8
  store i64 %1, ptr %4, align 8
  %5 = load ptr, ptr %3, align 8
  %6 = call noundef ptr @_ZNK4llvm25SmallVectorTemplateCommonImvE5beginEv(ptr noundef nonnull align 8 dereferenceable(16) %5)
  %7 = load i64, ptr %4, align 8
  %8 = getelementptr inbounds i64, ptr %6, i64 %7
  ret ptr %8
}

; Function Attrs: mustprogress nounwind uwtable
define linkonce_odr hidden noundef zeroext i1 @_ZNK4llvm9BitVectorixEj(ptr noundef nonnull align 8 dereferenceable(68) %0, i32 noundef %1) #1 comdat align 2 {
  %3 = alloca ptr, align 8
  %4 = alloca i32, align 4
  %5 = alloca i64, align 8
  store ptr %0, ptr %3, align 8
  store i32 %1, ptr %4, align 4
  %6 = load ptr, ptr %3, align 8
  %7 = load i32, ptr %4, align 4
  %8 = urem i32 %7, 64
  %9 = zext i32 %8 to i64
  %10 = shl i64 1, %9
  store i64 %10, ptr %5, align 8
  %11 = getelementptr inbounds nuw %"class.llvm::BitVector", ptr %6, i32 0, i32 0
  %12 = load i32, ptr %4, align 4
  %13 = udiv i32 %12, 64
  %14 = zext i32 %13 to i64
  %15 = call noundef nonnull align 8 dereferenceable(8) ptr @_ZNK4llvm25SmallVectorTemplateCommonImvEixEm(ptr noundef nonnull align 8 dereferenceable(16) %11, i64 noundef %14)
  %16 = load i64, ptr %15, align 8
  %17 = load i64, ptr %5, align 8
  %18 = and i64 %16, %17
  %19 = icmp ne i64 %18, 0
  ret i1 %19
}

; Function Attrs: mustprogress nounwind uwtable
define linkonce_odr hidden noundef ptr @_ZNK4llvm8ArrayRefItE3endEv(ptr noundef nonnull align 8 dereferenceable(16) %0) #1 comdat align 2 {
  %2 = alloca ptr, align 8
  store ptr %0, ptr %2, align 8
  %3 = load ptr, ptr %2, align 8
  %4 = getelementptr inbounds nuw %"class.llvm::ArrayRef.955", ptr %3, i32 0, i32 0
  %5 = load ptr, ptr %4, align 8
  %6 = getelementptr inbounds nuw %"class.llvm::ArrayRef.955", ptr %3, i32 0, i32 1
  %7 = load i64, ptr %6, align 8
  %8 = getelementptr inbounds i16, ptr %5, i64 %7
  ret ptr %8
}

; Function Attrs: mustprogress nounwind uwtable
define linkonce_odr hidden noundef ptr @_ZNK4llvm8ArrayRefItE5beginEv(ptr noundef nonnull align 8 dereferenceable(16) %0) #1 comdat align 2 {
  %2 = alloca ptr, align 8
  store ptr %0, ptr %2, align 8
  %3 = load ptr, ptr %2, align 8
  %4 = getelementptr inbounds nuw %"class.llvm::ArrayRef.955", ptr %3, i32 0, i32 0
  %5 = load ptr, ptr %4, align 8
  ret ptr %5
}

; Function Attrs: mustprogress nounwind uwtable
define linkonce_odr hidden void @_ZN4llvm10MCRegisterC2Ej(ptr noundef nonnull align 4 dereferenceable(4) %0, i32 noundef %1) unnamed_addr #1 comdat align 2 {
  %3 = alloca ptr, align 8
  %4 = alloca i32, align 4
  store ptr %0, ptr %3, align 8
  store i32 %1, ptr %4, align 4
  %5 = load ptr, ptr %3, align 8
  %6 = getelementptr inbounds nuw %"class.llvm::MCRegister", ptr %5, i32 0, i32 0
  %7 = load i32, ptr %4, align 4
  store i32 %7, ptr %6, align 4
  ret void
}

; Function Attrs: mustprogress nounwind uwtable
define linkonce_odr hidden noundef nonnull align 8 dereferenceable(16) ptr @_ZN4llvm18MCRegAliasIteratorppEv(ptr noundef nonnull align 8 dereferenceable(16) %0) #1 comdat align 2 {
  %2 = alloca ptr, align 8
  store ptr %0, ptr %2, align 8
  %3 = load ptr, ptr %2, align 8
  %4 = getelementptr inbounds nuw %"class.llvm::MCRegAliasIterator", ptr %3, i32 0, i32 0
  %5 = load ptr, ptr %4, align 8
  %6 = getelementptr inbounds i16, ptr %5, i32 1
  store ptr %6, ptr %4, align 8
  ret ptr %3
}

; Function Attrs: mustprogress nounwind uwtable
define linkonce_odr hidden noundef zeroext i1 @_ZNK4llvm9BitVector4testEj(ptr noundef nonnull align 8 dereferenceable(68) %0, i32 noundef %1) #1 comdat align 2 {
  %3 = alloca ptr, align 8
  %4 = alloca i32, align 4
  store ptr %0, ptr %3, align 8
  store i32 %1, ptr %4, align 4
  %5 = load ptr, ptr %3, align 8
  %6 = load i32, ptr %4, align 4
  %7 = call noundef zeroext i1 @_ZNK4llvm9BitVectorixEj(ptr noundef nonnull align 8 dereferenceable(68) %5, i32 noundef %6)
  ret i1 %7
}

; Function Attrs: mustprogress nounwind uwtable
define linkonce_odr hidden noundef i32 @_ZNK4llvm10MCRegistercvjEv(ptr noundef nonnull align 4 dereferenceable(4) %0) #1 comdat align 2 {
  %2 = alloca ptr, align 8
  store ptr %0, ptr %2, align 8
  %3 = load ptr, ptr %2, align 8
  %4 = getelementptr inbounds nuw %"class.llvm::MCRegister", ptr %3, i32 0, i32 0
  %5 = load i32, ptr %4, align 4
  ret i32 %5
}

; Function Attrs: mustprogress nounwind uwtable
define linkonce_odr hidden i32 @_ZNK4llvm18MCRegAliasIteratordeEv(ptr noundef nonnull align 8 dereferenceable(16) %0) #1 comdat align 2 {
  %2 = alloca %"class.llvm::MCRegister", align 4
  %3 = alloca ptr, align 8
  store ptr %0, ptr %3, align 8
  %4 = load ptr, ptr %3, align 8
  %5 = getelementptr inbounds nuw %"class.llvm::MCRegAliasIterator", ptr %4, i32 0, i32 0
  %6 = load ptr, ptr %5, align 8
  %7 = load i16, ptr %6, align 2
  %8 = zext i16 %7 to i32
  call void @_ZN4llvm10MCRegisterC2Ej(ptr noundef nonnull align 4 dereferenceable(4) %2, i32 noundef %8)
  %9 = getelementptr inbounds nuw %"class.llvm::MCRegister", ptr %2, i32 0, i32 0
  %10 = load i32, ptr %9, align 4
  ret i32 %10
}

; Function Attrs: mustprogress nounwind uwtable
define linkonce_odr hidden noundef zeroext i1 @_ZNK4llvm18MCRegAliasIterator7isValidEv(ptr noundef nonnull align 8 dereferenceable(16) %0) #1 comdat align 2 {
  %2 = alloca ptr, align 8
  store ptr %0, ptr %2, align 8
  %3 = load ptr, ptr %2, align 8
  %4 = getelementptr inbounds nuw %"class.llvm::MCRegAliasIterator", ptr %3, i32 0, i32 0
  %5 = load ptr, ptr %4, align 8
  %6 = getelementptr inbounds nuw %"class.llvm::MCRegAliasIterator", ptr %3, i32 0, i32 1
  %7 = load ptr, ptr %6, align 8
  %8 = icmp ne ptr %5, %7
  ret i1 %8
}

; Function Attrs: mustprogress nounwind uwtable
define linkonce_odr hidden void @_ZN4llvm18MCRegAliasIteratorC2ENS_10MCRegisterEPKNS_14MCRegisterInfoEb(ptr noundef nonnull align 8 dereferenceable(16) %0, i32 %1, ptr noundef %2, i1 noundef zeroext %3) unnamed_addr #1 comdat align 2 {
  %5 = alloca %"class.llvm::MCRegister", align 4
  %6 = alloca ptr, align 8
  %7 = alloca ptr, align 8
  %8 = alloca i8, align 1
  %9 = alloca %"class.llvm::ArrayRef.955", align 8
  %10 = getelementptr inbounds nuw %"class.llvm::MCRegister", ptr %5, i32 0, i32 0
  store i32 %1, ptr %10, align 4
  store ptr %0, ptr %6, align 8
  store ptr %2, ptr %7, align 8
  %11 = zext i1 %3 to i8
  store i8 %11, ptr %8, align 1
  %12 = load ptr, ptr %6, align 8
  %13 = getelementptr inbounds nuw %"class.llvm::MCRegAliasIterator", ptr %12, i32 0, i32 0
  store ptr null, ptr %13, align 8
  %14 = getelementptr inbounds nuw %"class.llvm::MCRegAliasIterator", ptr %12, i32 0, i32 1
  store ptr null, ptr %14, align 8
  %15 = load ptr, ptr %7, align 8
  %16 = call noundef i32 @_ZNK4llvm10MCRegistercvjEv(ptr noundef nonnull align 4 dereferenceable(4) %5)
  %17 = trunc i32 %16 to i16
  %18 = call { ptr, i64 } @_ZNK4llvm14MCRegisterInfo18getCachedAliasesOfEt(ptr noundef nonnull align 8 dereferenceable(224) %15, i16 noundef zeroext %17)
  %19 = getelementptr inbounds nuw { ptr, i64 }, ptr %9, i32 0, i32 0
  %20 = extractvalue { ptr, i64 } %18, 0
  store ptr %20, ptr %19, align 8
  %21 = getelementptr inbounds nuw { ptr, i64 }, ptr %9, i32 0, i32 1
  %22 = extractvalue { ptr, i64 } %18, 1
  store i64 %22, ptr %21, align 8
  %23 = call noundef ptr @_ZNK4llvm8ArrayRefItE5beginEv(ptr noundef nonnull align 8 dereferenceable(16) %9)
  %24 = getelementptr inbounds nuw %"class.llvm::MCRegAliasIterator", ptr %12, i32 0, i32 0
  store ptr %23, ptr %24, align 8
  %25 = call noundef ptr @_ZNK4llvm8ArrayRefItE3endEv(ptr noundef nonnull align 8 dereferenceable(16) %9)
  %26 = getelementptr inbounds nuw %"class.llvm::MCRegAliasIterator", ptr %12, i32 0, i32 1
  store ptr %25, ptr %26, align 8
  %27 = load i8, ptr %8, align 1
  %28 = trunc i8 %27 to i1
  br i1 %28, label %33, label %29

29:                                               ; preds = %4
  %30 = getelementptr inbounds nuw %"class.llvm::MCRegAliasIterator", ptr %12, i32 0, i32 1
  %31 = load ptr, ptr %30, align 8
  %32 = getelementptr inbounds i16, ptr %31, i32 -1
  store ptr %32, ptr %30, align 8
  br label %33

33:                                               ; preds = %29, %4
  ret void
}

; Function Attrs: mustprogress nounwind uwtable
define linkonce_odr hidden i32 @_ZNK4llvm8RegistercvNS_10MCRegisterEEv(ptr noundef nonnull align 4 dereferenceable(4) %0) #1 comdat align 2 {
  %2 = alloca %"class.llvm::MCRegister", align 4
  %3 = alloca ptr, align 8
  store ptr %0, ptr %3, align 8
  %4 = load ptr, ptr %3, align 8
  %5 = getelementptr inbounds nuw %"class.llvm::Register", ptr %4, i32 0, i32 0
  %6 = load i32, ptr %5, align 4
  call void @_ZN4llvm10MCRegisterC2Ej(ptr noundef nonnull align 4 dereferenceable(4) %2, i32 noundef %6)
  %7 = getelementptr inbounds nuw %"class.llvm::MCRegister", ptr %2, i32 0, i32 0
  %8 = load i32, ptr %7, align 4
  ret i32 %8
}

; Function Attrs: mustprogress nounwind uwtable
define dso_local noundef zeroext i1 @_ZNK15LiveDebugValues16InstrRefBasedLDV16isCalleeSavedRegEN4llvm8RegisterE(ptr noundef nonnull align 8 dereferenceable(2312) %0, i32 %1) #1 align 2 {
  %3 = alloca i1, align 1
  %4 = alloca %"class.llvm::Register", align 4
  %5 = alloca ptr, align 8
  %6 = alloca %"class.llvm::MCRegAliasIterator", align 8
  %7 = alloca %"class.llvm::MCRegister", align 4
  %8 = alloca %"class.llvm::MCRegister", align 4
  %9 = getelementptr inbounds nuw %"class.llvm::Register", ptr %4, i32 0, i32 0
  store i32 %1, ptr %9, align 4
  store ptr %0, ptr %5, align 8
  %10 = load ptr, ptr %5, align 8
  %11 = call i32 @_ZNK4llvm8RegistercvNS_10MCRegisterEEv(ptr noundef nonnull align 4 dereferenceable(4) %4)
  %12 = getelementptr inbounds nuw %"class.llvm::MCRegister", ptr %7, i32 0, i32 0
  store i32 %11, ptr %12, align 4
  %13 = getelementptr inbounds nuw %"class.LiveDebugValues::InstrRefBasedLDV", ptr %10, i32 0, i32 2
  %14 = load ptr, ptr %13, align 8
  %15 = icmp eq ptr %14, null
  br i1 %15, label %18, label %16

16:                                               ; preds = %2
  %17 = getelementptr inbounds i8, ptr %14, i64 8
  br label %18

18:                                               ; preds = %16, %2
  %19 = phi ptr [ %17, %16 ], [ null, %2 ]
  %20 = getelementptr inbounds nuw %"class.llvm::MCRegister", ptr %7, i32 0, i32 0
  %21 = load i32, ptr %20, align 4
  call void @_ZN4llvm18MCRegAliasIteratorC2ENS_10MCRegisterEPKNS_14MCRegisterInfoEb(ptr noundef nonnull align 8 dereferenceable(16) %6, i32 %21, ptr noundef %19, i1 noundef zeroext true)
  br label %22

22:                                               ; preds = %32, %18
  %23 = call noundef zeroext i1 @_ZNK4llvm18MCRegAliasIterator7isValidEv(ptr noundef nonnull align 8 dereferenceable(16) %6)
  br i1 %23, label %24, label %34

24:                                               ; preds = %22
  %25 = getelementptr inbounds nuw %"class.LiveDebugValues::InstrRefBasedLDV", ptr %10, i32 0, i32 7
  %26 = call i32 @_ZNK4llvm18MCRegAliasIteratordeEv(ptr noundef nonnull align 8 dereferenceable(16) %6)
  %27 = getelementptr inbounds nuw %"class.llvm::MCRegister", ptr %8, i32 0, i32 0
  store i32 %26, ptr %27, align 4
  %28 = call noundef i32 @_ZNK4llvm10MCRegistercvjEv(ptr noundef nonnull align 4 dereferenceable(4) %8)
  %29 = call noundef zeroext i1 @_ZNK4llvm9BitVector4testEj(ptr noundef nonnull align 8 dereferenceable(68) %25, i32 noundef %28)
  br i1 %29, label %30, label %31

30:                                               ; preds = %24
  store i1 true, ptr %3, align 1
  br label %35

31:                                               ; preds = %24
  br label %32

32:                                               ; preds = %31
  %33 = call noundef nonnull align 8 dereferenceable(16) ptr @_ZN4llvm18MCRegAliasIteratorppEv(ptr noundef nonnull align 8 dereferenceable(16) %6)
  br label %22, !llvm.loop !10

34:                                               ; preds = %22
  store i1 false, ptr %3, align 1
  br label %35

35:                                               ; preds = %34, %30
  %36 = load i1, ptr %3, align 1
  ret i1 %36
}