; Function Attrs: mustprogress nounwind uwtable
define dso_local noundef zeroext i1 @_ZNK15LiveDebugValues16InstrRefBasedLDV16isCalleeSavedRegEN4llvm8RegisterE(ptr nocapture noundef nonnull readonly align 8 dereferenceable(2312) %0, i32 %1) local_unnamed_addr #0 align 2 {
  %3 = getelementptr inbounds nuw i8, ptr %0, i64 16
  %4 = load ptr, ptr %3, align 8
  %5 = icmp eq ptr %4, null
  %6 = getelementptr inbounds i8, ptr %4, i64 8
  %spec.select = select i1 %5, ptr null, ptr %6
  %7 = trunc i32 %1 to i16
  %8 = tail call { ptr, i64 } @_ZNK4llvm14MCRegisterInfo18getCachedAliasesOfEt(ptr noundef nonnull align 8 dereferenceable(224) %spec.select, i16 noundef zeroext %7) #21
  %9 = extractvalue { ptr, i64 } %8, 0
  %10 = extractvalue { ptr, i64 } %8, 1
  %11 = getelementptr inbounds i16, ptr %9, i64 %10
  %.not9 = icmp eq i64 %10, 0
  br i1 %.not9, label %._crit_edge, label %.lr.ph

.lr.ph:                                           ; preds = %2
  %12 = getelementptr inbounds nuw i8, ptr %0, i64 56
  %13 = load ptr, ptr %12, align 8
  br label %14

14:                                               ; preds = %14, %.lr.ph
  %.sroa.02.06 = phi ptr [ %9, %.lr.ph ], [ %25, %14 ]
  %15 = load i16, ptr %.sroa.02.06, align 2
  %16 = zext i16 %15 to i32
  %17 = and i32 %16, 63
  %18 = zext nneg i32 %17 to i64
  %19 = shl nuw i64 1, %18
  %20 = lshr i32 %16, 6
  %21 = zext nneg i32 %20 to i64
  %22 = getelementptr inbounds i64, ptr %13, i64 %21
  %23 = load i64, ptr %22, align 8
  %24 = and i64 %19, %23
  %.not.not = icmp ne i64 %24, 0
  %25 = getelementptr inbounds i8, ptr %.sroa.02.06, i64 2
  %.not10 = icmp eq ptr %25, %11
  %or.cond = select i1 %.not.not, i1 true, i1 %.not10
  br i1 %or.cond, label %._crit_edge, label %14, !llvm.loop !145

._crit_edge:                                      ; preds = %14, %2
  %.lcssa = phi i1 [ false, %2 ], [ %.not.not, %14 ]
  ret i1 %.lcssa
}